target datalayout = "e-m:e-p270:32:32-p271:32:32-p272:64:64-i64:64-i128:128-f80:128-n8:16:32:64-S128"
target triple = "x86_64-pc-linux-gnu"

%struct._object = type { %union.anon, ptr }
%union.anon = type { i64 }
%struct.anon = type { i32, i32 }

@PyExc_TypeError = external global ptr, align 8
@.str.35 = private unnamed_addr constant [38 x i8] c"expected at most 1 arguments, got %zd\00", align 1

; Function Attrs: alwaysinline nounwind uwtable
define internal i32 @_Py_IsImmortal(ptr noundef %0) #4 {
  %2 = alloca ptr, align 8
  store ptr %0, ptr %2, align 8, !tbaa !42
  %3 = load ptr, ptr %2, align 8, !tbaa !42
  %4 = getelementptr inbounds nuw %struct._object, ptr %3, i32 0, i32 0
  %5 = getelementptr inbounds nuw %struct.anon, ptr %4, i32 0, i32 0
  %6 = load i32, ptr %5, align 8, !tbaa !74
  %7 = icmp slt i32 %6, 0
  %8 = zext i1 %7 to i32
  ret i32 %8
}

; Function Attrs: alwaysinline nounwind uwtable
define internal void @Py_DECREF(ptr noundef %0) #4 {
  %2 = alloca ptr, align 8
  store ptr %0, ptr %2, align 8, !tbaa !42
  %3 = load ptr, ptr %2, align 8, !tbaa !42
  %4 = call i32 @_Py_IsImmortal(ptr noundef %3)
  %5 = icmp ne i32 %4, 0
  br i1 %5, label %6, label %7

6:                                                ; preds = %1
  br label %16

7:                                                ; preds = %1
  %8 = load ptr, ptr %2, align 8, !tbaa !42
  %9 = getelementptr inbounds nuw %struct._object, ptr %8, i32 0, i32 0
  %10 = getelementptr inbounds nuw %struct.anon, ptr %9, i32 0, i32 0
  %11 = load i32, ptr %10, align 8, !tbaa !74
  %12 = add i32 %11, -1
  store i32 %12, ptr %10, align 8, !tbaa !74
  %13 = icmp eq i32 %12, 0
  br i1 %13, label %14, label %16

14:                                               ; preds = %7
  %15 = load ptr, ptr %2, align 8, !tbaa !42
  call void @_Py_Dealloc(ptr noundef %15)
  br label %16

16:                                               ; preds = %6, %14, %7
  ret void
}

; Function Attrs: nounwind uwtable
define internal i32 @odict_init(ptr noundef %0, ptr noundef %1, ptr noundef %2) #0 {
  %4 = alloca i32, align 4
  %5 = alloca ptr, align 8
  %6 = alloca ptr, align 8
  %7 = alloca ptr, align 8
  %8 = alloca ptr, align 8
  %9 = alloca i64, align 8
  %10 = alloca i32, align 4
  %11 = alloca ptr, align 8
  store ptr %0, ptr %5, align 8, !tbaa !42
  store ptr %1, ptr %6, align 8, !tbaa !42
  store ptr %2, ptr %7, align 8, !tbaa !42
  call void @llvm.lifetime.start.p0(i64 8, ptr %8) #7
  call void @llvm.lifetime.start.p0(i64 8, ptr %9) #7
  %12 = load ptr, ptr %6, align 8, !tbaa !42
  %13 = call i64 @PyObject_Size(ptr noundef %12)
  store i64 %13, ptr %9, align 8, !tbaa !55
  %14 = load i64, ptr %9, align 8, !tbaa !55
  %15 = icmp eq i64 %14, -1
  br i1 %15, label %16, label %17

16:                                               ; preds = %3
  store i32 -1, ptr %4, align 4
  store i32 1, ptr %10, align 4
  br label %35

17:                                               ; preds = %3
  %18 = load i64, ptr %9, align 8, !tbaa !55
  %19 = icmp sgt i64 %18, 1
  br i1 %19, label %20, label %25

20:                                               ; preds = %17
  call void @llvm.lifetime.start.p0(i64 8, ptr %11) #7
  store ptr @.str.35, ptr %11, align 8, !tbaa !56
  %21 = load ptr, ptr @PyExc_TypeError, align 8, !tbaa !42
  %22 = load ptr, ptr %11, align 8, !tbaa !56
  %23 = load i64, ptr %9, align 8, !tbaa !55
  %24 = call ptr (ptr, ptr, ...) @PyErr_Format(ptr noundef %21, ptr noundef %22, i64 noundef %23)
  store i32 -1, ptr %4, align 4
  store i32 1, ptr %10, align 4
  call void @llvm.lifetime.end.p0(i64 8, ptr %11) #7
  br label %35

25:                                               ; preds = %17
  %26 = load ptr, ptr %5, align 8, !tbaa !42
  %27 = load ptr, ptr %6, align 8, !tbaa !42
  %28 = load ptr, ptr %7, align 8, !tbaa !42
  %29 = call ptr @mutablemapping_update(ptr noundef %26, ptr noundef %27, ptr noundef %28)
  store ptr %29, ptr %8, align 8, !tbaa !42
  %30 = load ptr, ptr %8, align 8, !tbaa !42
  %31 = icmp eq ptr %30, null
  br i1 %31, label %32, label %33

32:                                               ; preds = %25
  store i32 -1, ptr %4, align 4
  store i32 1, ptr %10, align 4
  br label %35

33:                                               ; preds = %25
  %34 = load ptr, ptr %8, align 8, !tbaa !42
  call void @Py_DECREF(ptr noundef %34)
  store i32 0, ptr %4, align 4
  store i32 1, ptr %10, align 4
  br label %35

35:                                               ; preds = %33, %32, %20, %16
  call void @llvm.lifetime.end.p0(i64 8, ptr %9) #7
  call void @llvm.lifetime.end.p0(i64 8, ptr %8) #7
  %36 = load i32, ptr %4, align 4
  ret i32 %36
}