; Function Attrs: nounwind uwtable
define internal range(i32 -1, 1) i32 @odict_init(ptr noundef %0, ptr noundef %1, ptr noundef %2) #0 {
  %4 = tail call i64 @PyObject_Size(ptr noundef %1) #8
  %5 = icmp eq i64 %4, -1
  br i1 %5, label %Py_DECREF.exit, label %6

6:                                                ; preds = %3
  %7 = icmp sgt i64 %4, 1
  br i1 %7, label %8, label %11

8:                                                ; preds = %6
  %9 = load ptr, ptr @PyExc_TypeError, align 8, !tbaa !53
  %10 = tail call ptr (ptr, ptr, ...) @PyErr_Format(ptr noundef %9, ptr noundef nonnull @.str.35, i64 noundef %4) #8
  br label %Py_DECREF.exit

11:                                               ; preds = %6
  %12 = tail call ptr @mutablemapping_update(ptr noundef %0, ptr noundef %1, ptr noundef %2)
  %13 = icmp eq ptr %12, null
  br i1 %13, label %Py_DECREF.exit, label %14

14:                                               ; preds = %11
  %15 = load i32, ptr %12, align 8, !tbaa !38
  %.not.i = icmp sgt i32 %15, -1
  br i1 %.not.i, label %16, label %Py_DECREF.exit

16:                                               ; preds = %14
  %17 = add nsw i32 %15, -1
  store i32 %17, ptr %12, align 8, !tbaa !38
  %18 = icmp eq i32 %17, 0
  br i1 %18, label %19, label %Py_DECREF.exit

19:                                               ; preds = %16
  tail call void @_Py_Dealloc(ptr noundef nonnull %12) #8
  br label %Py_DECREF.exit

Py_DECREF.exit:                                   ; preds = %19, %16, %14, %11, %3, %8
  %.0 = phi i32 [ -1, %8 ], [ -1, %3 ], [ -1, %11 ], [ 0, %14 ], [ 0, %16 ], [ 0, %19 ]
  ret i32 %.0
}